(lp0
F0.8035899673005142
aF0.4266817311577247
aF0.5538231671975873
aF0.02270309361153469
aF0.2250564469831754
aF0.015644407869805782
aF0.10958480156794784
aF0.25457224396700096
aF0.6372528331318417
aI0
a.